target datalayout = "e-m:e-p270:32:32-p271:32:32-p272:64:64-i64:64-i128:128-f80:128-n8:16:32:64-S128"
target triple = "x86_64-pc-linux-gnu"

%struct.JSValue = type { %union.JSValueUnion, i64 }
%union.JSValueUnion = type { double }
%struct.JSRefCountHeader = type { i32 }
%struct.JSThreadState = type { %struct.list_head, %struct.list_head, %struct.list_head, %struct.list_head, i32, i32, ptr, ptr }
%struct.list_head = type { ptr, ptr }
%struct.JSWorkerMessagePipe = type { i32, %union.pthread_mutex_t, %struct.list_head, i32, i32 }
%union.pthread_mutex_t = type { %struct.__pthread_mutex_s }
%struct.__pthread_mutex_s = type { i32, i32, i32, i32, i32, i16, i16, %struct.__pthread_internal_list }
%struct.__pthread_internal_list = type { ptr, ptr }
%struct.JSWorkerMessageHandler = type { %struct.list_head, ptr, %struct.JSValue }
%struct.JSWorkerData = type { ptr, ptr, ptr }

@js_worker_class_id = internal global i32 0, align 4
@.str.106 = private unnamed_addr constant [15 x i8] c"not a function\00", align 1

; Function Attrs: nounwind uwtable
define internal void @__list_add(ptr noundef %0, ptr noundef %1, ptr noundef %2) #0 {
  %4 = alloca ptr, align 8
  %5 = alloca ptr, align 8
  %6 = alloca ptr, align 8
  store ptr %0, ptr %4, align 8
  store ptr %1, ptr %5, align 8
  store ptr %2, ptr %6, align 8
  %7 = load ptr, ptr %4, align 8
  %8 = load ptr, ptr %5, align 8
  %9 = getelementptr inbounds %struct.list_head, ptr %8, i32 0, i32 1
  store ptr %7, ptr %9, align 8
  %10 = load ptr, ptr %5, align 8
  %11 = load ptr, ptr %4, align 8
  %12 = getelementptr inbounds %struct.list_head, ptr %11, i32 0, i32 0
  store ptr %10, ptr %12, align 8
  %13 = load ptr, ptr %6, align 8
  %14 = load ptr, ptr %4, align 8
  %15 = getelementptr inbounds %struct.list_head, ptr %14, i32 0, i32 1
  store ptr %13, ptr %15, align 8
  %16 = load ptr, ptr %4, align 8
  %17 = load ptr, ptr %6, align 8
  %18 = getelementptr inbounds %struct.list_head, ptr %17, i32 0, i32 0
  store ptr %16, ptr %18, align 8
  ret void
}

; Function Attrs: nounwind uwtable
define internal i32 @atomic_add_int(ptr noundef %0, i32 noundef %1) #0 {
  %3 = alloca ptr, align 8
  %4 = alloca i32, align 4
  %5 = alloca i32, align 4
  %6 = alloca i32, align 4
  store ptr %0, ptr %3, align 8
  store i32 %1, ptr %4, align 4
  %7 = load ptr, ptr %3, align 8
  %8 = load i32, ptr %4, align 4
  store i32 %8, ptr %5, align 4
  %9 = load i32, ptr %5, align 4
  %10 = atomicrmw add ptr %7, i32 %9 seq_cst, align 4
  store i32 %10, ptr %6, align 4
  %11 = load i32, ptr %6, align 4
  %12 = load i32, ptr %4, align 4
  %13 = add i32 %11, %12
  ret i32 %13
}

; Function Attrs: nounwind uwtable
define internal void @list_del(ptr noundef %0) #0 {
  %2 = alloca ptr, align 8
  %3 = alloca ptr, align 8
  %4 = alloca ptr, align 8
  store ptr %0, ptr %2, align 8
  %5 = load ptr, ptr %2, align 8
  %6 = getelementptr inbounds %struct.list_head, ptr %5, i32 0, i32 0
  %7 = load ptr, ptr %6, align 8
  store ptr %7, ptr %3, align 8
  %8 = load ptr, ptr %2, align 8
  %9 = getelementptr inbounds %struct.list_head, ptr %8, i32 0, i32 1
  %10 = load ptr, ptr %9, align 8
  store ptr %10, ptr %4, align 8
  %11 = load ptr, ptr %4, align 8
  %12 = load ptr, ptr %3, align 8
  %13 = getelementptr inbounds %struct.list_head, ptr %12, i32 0, i32 1
  store ptr %11, ptr %13, align 8
  %14 = load ptr, ptr %3, align 8
  %15 = load ptr, ptr %4, align 8
  %16 = getelementptr inbounds %struct.list_head, ptr %15, i32 0, i32 0
  store ptr %14, ptr %16, align 8
  %17 = load ptr, ptr %2, align 8
  %18 = getelementptr inbounds %struct.list_head, ptr %17, i32 0, i32 0
  store ptr null, ptr %18, align 8
  %19 = load ptr, ptr %2, align 8
  %20 = getelementptr inbounds %struct.list_head, ptr %19, i32 0, i32 1
  store ptr null, ptr %20, align 8
  ret void
}

; Function Attrs: nounwind uwtable
define internal void @JS_FreeValueRT(ptr noundef %0, i64 %1, i64 %2) #0 {
  %4 = alloca %struct.JSValue, align 8
  %5 = alloca ptr, align 8
  %6 = alloca ptr, align 8
  %7 = getelementptr inbounds { i64, i64 }, ptr %4, i32 0, i32 0
  store i64 %1, ptr %7, align 8
  %8 = getelementptr inbounds { i64, i64 }, ptr %4, i32 0, i32 1
  store i64 %2, ptr %8, align 8
  store ptr %0, ptr %5, align 8
  %9 = getelementptr inbounds %struct.JSValue, ptr %4, i32 0, i32 1
  %10 = load i64, ptr %9, align 8
  %11 = trunc i64 %10 to i32
  %12 = icmp uge i32 %11, -11
  br i1 %12, label %13, label %28

13:                                               ; preds = %3
  %14 = getelementptr inbounds %struct.JSValue, ptr %4, i32 0, i32 0
  %15 = load ptr, ptr %14, align 8
  store ptr %15, ptr %6, align 8
  %16 = load ptr, ptr %6, align 8
  %17 = getelementptr inbounds %struct.JSRefCountHeader, ptr %16, i32 0, i32 0
  %18 = load i32, ptr %17, align 4
  %19 = add i32 %18, -1
  store i32 %19, ptr %17, align 4
  %20 = icmp sle i32 %19, 0
  br i1 %20, label %21, label %27

21:                                               ; preds = %13
  %22 = load ptr, ptr %5, align 8
  %23 = getelementptr inbounds { i64, i64 }, ptr %4, i32 0, i32 0
  %24 = load i64, ptr %23, align 8
  %25 = getelementptr inbounds { i64, i64 }, ptr %4, i32 0, i32 1
  %26 = load i64, ptr %25, align 8
  call void @__JS_FreeValueRT(ptr noundef %22, i64 %24, i64 %26)
  br label %27

27:                                               ; preds = %21, %13
  br label %28

28:                                               ; preds = %27, %3
  ret void
}

; Function Attrs: nounwind uwtable
define internal { i64, i64 } @JS_DupValue(ptr noundef %0, i64 %1, i64 %2) #0 {
  %4 = alloca %struct.JSValue, align 8
  %5 = alloca %struct.JSValue, align 8
  %6 = alloca ptr, align 8
  %7 = alloca ptr, align 8
  %8 = getelementptr inbounds { i64, i64 }, ptr %5, i32 0, i32 0
  store i64 %1, ptr %8, align 8
  %9 = getelementptr inbounds { i64, i64 }, ptr %5, i32 0, i32 1
  store i64 %2, ptr %9, align 8
  store ptr %0, ptr %6, align 8
  %10 = getelementptr inbounds %struct.JSValue, ptr %5, i32 0, i32 1
  %11 = load i64, ptr %10, align 8
  %12 = trunc i64 %11 to i32
  %13 = icmp uge i32 %12, -11
  br i1 %13, label %14, label %21

14:                                               ; preds = %3
  %15 = getelementptr inbounds %struct.JSValue, ptr %5, i32 0, i32 0
  %16 = load ptr, ptr %15, align 8
  store ptr %16, ptr %7, align 8
  %17 = load ptr, ptr %7, align 8
  %18 = getelementptr inbounds %struct.JSRefCountHeader, ptr %17, i32 0, i32 0
  %19 = load i32, ptr %18, align 4
  %20 = add i32 %19, 1
  store i32 %20, ptr %18, align 4
  br label %21

21:                                               ; preds = %14, %3
  call void @llvm.memcpy.p0.p0.i64(ptr align 8 %4, ptr align 8 %5, i64 16, i1 false)
  %22 = load { i64, i64 }, ptr %4, align 8
  ret { i64, i64 } %22
}

; Function Attrs: nounwind uwtable
define internal void @JS_FreeValue(ptr noundef %0, i64 %1, i64 %2) #0 {
  %4 = alloca %struct.JSValue, align 8
  %5 = alloca ptr, align 8
  %6 = alloca ptr, align 8
  %7 = getelementptr inbounds { i64, i64 }, ptr %4, i32 0, i32 0
  store i64 %1, ptr %7, align 8
  %8 = getelementptr inbounds { i64, i64 }, ptr %4, i32 0, i32 1
  store i64 %2, ptr %8, align 8
  store ptr %0, ptr %5, align 8
  %9 = getelementptr inbounds %struct.JSValue, ptr %4, i32 0, i32 1
  %10 = load i64, ptr %9, align 8
  %11 = trunc i64 %10 to i32
  %12 = icmp uge i32 %11, -11
  br i1 %12, label %13, label %28

13:                                               ; preds = %3
  %14 = getelementptr inbounds %struct.JSValue, ptr %4, i32 0, i32 0
  %15 = load ptr, ptr %14, align 8
  store ptr %15, ptr %6, align 8
  %16 = load ptr, ptr %6, align 8
  %17 = getelementptr inbounds %struct.JSRefCountHeader, ptr %16, i32 0, i32 0
  %18 = load i32, ptr %17, align 4
  %19 = add i32 %18, -1
  store i32 %19, ptr %17, align 4
  %20 = icmp sle i32 %19, 0
  br i1 %20, label %21, label %27

21:                                               ; preds = %13
  %22 = load ptr, ptr %5, align 8
  %23 = getelementptr inbounds { i64, i64 }, ptr %4, i32 0, i32 0
  %24 = load i64, ptr %23, align 8
  %25 = getelementptr inbounds { i64, i64 }, ptr %4, i32 0, i32 1
  %26 = load i64, ptr %25, align 8
  call void @__JS_FreeValue(ptr noundef %22, i64 %24, i64 %26)
  br label %27

27:                                               ; preds = %21, %13
  br label %28

28:                                               ; preds = %27, %3
  ret void
}

; Function Attrs: nounwind uwtable
define internal void @list_add_tail(ptr noundef %0, ptr noundef %1) #0 {
  %3 = alloca ptr, align 8
  %4 = alloca ptr, align 8
  store ptr %0, ptr %3, align 8
  store ptr %1, ptr %4, align 8
  %5 = load ptr, ptr %3, align 8
  %6 = load ptr, ptr %4, align 8
  %7 = getelementptr inbounds %struct.list_head, ptr %6, i32 0, i32 0
  %8 = load ptr, ptr %7, align 8
  %9 = load ptr, ptr %4, align 8
  call void @__list_add(ptr noundef %5, ptr noundef %8, ptr noundef %9)
  ret void
}

; Function Attrs: nounwind uwtable
define internal ptr @js_dup_message_pipe(ptr noundef %0) #0 {
  %2 = alloca ptr, align 8
  store ptr %0, ptr %2, align 8
  %3 = load ptr, ptr %2, align 8
  %4 = getelementptr inbounds %struct.JSWorkerMessagePipe, ptr %3, i32 0, i32 0
  %5 = call i32 @atomic_add_int(ptr noundef %4, i32 noundef 1)
  %6 = load ptr, ptr %2, align 8
  ret ptr %6
}

; Function Attrs: nounwind uwtable
define internal void @js_free_port(ptr noundef %0, ptr noundef %1) #0 {
  %3 = alloca ptr, align 8
  %4 = alloca ptr, align 8
  store ptr %0, ptr %3, align 8
  store ptr %1, ptr %4, align 8
  %5 = load ptr, ptr %4, align 8
  %6 = icmp ne ptr %5, null
  br i1 %6, label %7, label %22

7:                                                ; preds = %2
  %8 = load ptr, ptr %4, align 8
  %9 = getelementptr inbounds %struct.JSWorkerMessageHandler, ptr %8, i32 0, i32 1
  %10 = load ptr, ptr %9, align 8
  call void @js_free_message_pipe(ptr noundef %10)
  %11 = load ptr, ptr %3, align 8
  %12 = load ptr, ptr %4, align 8
  %13 = getelementptr inbounds %struct.JSWorkerMessageHandler, ptr %12, i32 0, i32 2
  %14 = getelementptr inbounds { i64, i64 }, ptr %13, i32 0, i32 0
  %15 = load i64, ptr %14, align 8
  %16 = getelementptr inbounds { i64, i64 }, ptr %13, i32 0, i32 1
  %17 = load i64, ptr %16, align 8
  call void @JS_FreeValueRT(ptr noundef %11, i64 %15, i64 %17)
  %18 = load ptr, ptr %4, align 8
  %19 = getelementptr inbounds %struct.JSWorkerMessageHandler, ptr %18, i32 0, i32 0
  call void @list_del(ptr noundef %19)
  %20 = load ptr, ptr %3, align 8
  %21 = load ptr, ptr %4, align 8
  call void @js_free_rt(ptr noundef %20, ptr noundef %21)
  br label %22

22:                                               ; preds = %7, %2
  ret void
}

; Function Attrs: nounwind uwtable
define internal i32 @JS_IsNull(i64 %0, i64 %1) #0 {
  %3 = alloca %struct.JSValue, align 8
  %4 = getelementptr inbounds { i64, i64 }, ptr %3, i32 0, i32 0
  store i64 %0, ptr %4, align 8
  %5 = getelementptr inbounds { i64, i64 }, ptr %3, i32 0, i32 1
  store i64 %1, ptr %5, align 8
  %6 = getelementptr inbounds %struct.JSValue, ptr %3, i32 0, i32 1
  %7 = load i64, ptr %6, align 8
  %8 = trunc i64 %7 to i32
  %9 = icmp eq i32 %8, 2
  %10 = zext i1 %9 to i32
  ret i32 %10
}

; Function Attrs: nounwind uwtable
define internal { i64, i64 } @js_worker_set_onmessage(ptr noundef %0, i64 %1, i64 %2, i64 %3, i64 %4) #0 {
  %6 = alloca %struct.JSValue, align 8
  %7 = alloca %struct.JSValue, align 8
  %8 = alloca %struct.JSValue, align 8
  %9 = alloca ptr, align 8
  %10 = alloca ptr, align 8
  %11 = alloca ptr, align 8
  %12 = alloca ptr, align 8
  %13 = alloca ptr, align 8
  %14 = alloca %struct.JSValue, align 8
  %15 = alloca %struct.JSValue, align 8
  %16 = getelementptr inbounds { i64, i64 }, ptr %7, i32 0, i32 0
  store i64 %1, ptr %16, align 8
  %17 = getelementptr inbounds { i64, i64 }, ptr %7, i32 0, i32 1
  store i64 %2, ptr %17, align 8
  %18 = getelementptr inbounds { i64, i64 }, ptr %8, i32 0, i32 0
  store i64 %3, ptr %18, align 8
  %19 = getelementptr inbounds { i64, i64 }, ptr %8, i32 0, i32 1
  store i64 %4, ptr %19, align 8
  store ptr %0, ptr %9, align 8
  %20 = load ptr, ptr %9, align 8
  %21 = call ptr @JS_GetRuntime(ptr noundef %20)
  store ptr %21, ptr %10, align 8
  %22 = load ptr, ptr %10, align 8
  %23 = call ptr @JS_GetRuntimeOpaque(ptr noundef %22)
  store ptr %23, ptr %11, align 8
  %24 = load ptr, ptr %9, align 8
  %25 = load i32, ptr @js_worker_class_id, align 4
  %26 = getelementptr inbounds { i64, i64 }, ptr %7, i32 0, i32 0
  %27 = load i64, ptr %26, align 8
  %28 = getelementptr inbounds { i64, i64 }, ptr %7, i32 0, i32 1
  %29 = load i64, ptr %28, align 8
  %30 = call ptr @JS_GetOpaque2(ptr noundef %24, i64 %27, i64 %29, i32 noundef %25)
  store ptr %30, ptr %12, align 8
  %31 = load ptr, ptr %12, align 8
  %32 = icmp ne ptr %31, null
  br i1 %32, label %36, label %33

33:                                               ; preds = %5
  %34 = getelementptr inbounds %struct.JSValue, ptr %6, i32 0, i32 0
  store i32 0, ptr %34, align 8
  %35 = getelementptr inbounds %struct.JSValue, ptr %6, i32 0, i32 1
  store i64 6, ptr %35, align 8
  br label %122

36:                                               ; preds = %5
  %37 = load ptr, ptr %12, align 8
  %38 = getelementptr inbounds %struct.JSWorkerData, ptr %37, i32 0, i32 2
  %39 = load ptr, ptr %38, align 8
  store ptr %39, ptr %13, align 8
  %40 = getelementptr inbounds { i64, i64 }, ptr %8, i32 0, i32 0
  %41 = load i64, ptr %40, align 8
  %42 = getelementptr inbounds { i64, i64 }, ptr %8, i32 0, i32 1
  %43 = load i64, ptr %42, align 8
  %44 = call i32 @JS_IsNull(i64 %41, i64 %43)
  %45 = icmp ne i32 %44, 0
  br i1 %45, label %46, label %55

46:                                               ; preds = %36
  %47 = load ptr, ptr %13, align 8
  %48 = icmp ne ptr %47, null
  br i1 %48, label %49, label %54

49:                                               ; preds = %46
  %50 = load ptr, ptr %10, align 8
  %51 = load ptr, ptr %13, align 8
  call void @js_free_port(ptr noundef %50, ptr noundef %51)
  %52 = load ptr, ptr %12, align 8
  %53 = getelementptr inbounds %struct.JSWorkerData, ptr %52, i32 0, i32 2
  store ptr null, ptr %53, align 8
  br label %54

54:                                               ; preds = %49, %46
  br label %119

55:                                               ; preds = %36
  %56 = load ptr, ptr %9, align 8
  %57 = getelementptr inbounds { i64, i64 }, ptr %8, i32 0, i32 0
  %58 = load i64, ptr %57, align 8
  %59 = getelementptr inbounds { i64, i64 }, ptr %8, i32 0, i32 1
  %60 = load i64, ptr %59, align 8
  %61 = call i32 @JS_IsFunction(ptr noundef %56, i64 %58, i64 %60)
  %62 = icmp ne i32 %61, 0
  br i1 %62, label %70, label %63

63:                                               ; preds = %55
  %64 = load ptr, ptr %9, align 8
  %65 = call { i64, i64 } (ptr, ptr, ...) @JS_ThrowTypeError(ptr noundef %64, ptr noundef @.str.106)
  %66 = getelementptr inbounds { i64, i64 }, ptr %6, i32 0, i32 0
  %67 = extractvalue { i64, i64 } %65, 0
  store i64 %67, ptr %66, align 8
  %68 = getelementptr inbounds { i64, i64 }, ptr %6, i32 0, i32 1
  %69 = extractvalue { i64, i64 } %65, 1
  store i64 %69, ptr %68, align 8
  br label %122

70:                                               ; preds = %55
  %71 = load ptr, ptr %13, align 8
  %72 = icmp ne ptr %71, null
  br i1 %72, label %99, label %73

73:                                               ; preds = %70
  %74 = load ptr, ptr %9, align 8
  %75 = call ptr @js_mallocz(ptr noundef %74, i64 noundef 40)
  store ptr %75, ptr %13, align 8
  %76 = load ptr, ptr %13, align 8
  %77 = icmp ne ptr %76, null
  br i1 %77, label %81, label %78

78:                                               ; preds = %73
  %79 = getelementptr inbounds %struct.JSValue, ptr %6, i32 0, i32 0
  store i32 0, ptr %79, align 8
  %80 = getelementptr inbounds %struct.JSValue, ptr %6, i32 0, i32 1
  store i64 6, ptr %80, align 8
  br label %122

81:                                               ; preds = %73
  %82 = load ptr, ptr %12, align 8
  %83 = getelementptr inbounds %struct.JSWorkerData, ptr %82, i32 0, i32 0
  %84 = load ptr, ptr %83, align 8
  %85 = call ptr @js_dup_message_pipe(ptr noundef %84)
  %86 = load ptr, ptr %13, align 8
  %87 = getelementptr inbounds %struct.JSWorkerMessageHandler, ptr %86, i32 0, i32 1
  store ptr %85, ptr %87, align 8
  %88 = load ptr, ptr %13, align 8
  %89 = getelementptr inbounds %struct.JSWorkerMessageHandler, ptr %88, i32 0, i32 2
  %90 = getelementptr inbounds %struct.JSValue, ptr %14, i32 0, i32 0
  store i32 0, ptr %90, align 8
  %91 = getelementptr inbounds %struct.JSValue, ptr %14, i32 0, i32 1
  store i64 2, ptr %91, align 8
  call void @llvm.memcpy.p0.p0.i64(ptr align 8 %89, ptr align 8 %14, i64 16, i1 false)
  %92 = load ptr, ptr %13, align 8
  %93 = getelementptr inbounds %struct.JSWorkerMessageHandler, ptr %92, i32 0, i32 0
  %94 = load ptr, ptr %11, align 8
  %95 = getelementptr inbounds %struct.JSThreadState, ptr %94, i32 0, i32 3
  call void @list_add_tail(ptr noundef %93, ptr noundef %95)
  %96 = load ptr, ptr %13, align 8
  %97 = load ptr, ptr %12, align 8
  %98 = getelementptr inbounds %struct.JSWorkerData, ptr %97, i32 0, i32 2
  store ptr %96, ptr %98, align 8
  br label %99

99:                                               ; preds = %81, %70
  %100 = load ptr, ptr %9, align 8
  %101 = load ptr, ptr %13, align 8
  %102 = getelementptr inbounds %struct.JSWorkerMessageHandler, ptr %101, i32 0, i32 2
  %103 = getelementptr inbounds { i64, i64 }, ptr %102, i32 0, i32 0
  %104 = load i64, ptr %103, align 8
  %105 = getelementptr inbounds { i64, i64 }, ptr %102, i32 0, i32 1
  %106 = load i64, ptr %105, align 8
  call void @JS_FreeValue(ptr noundef %100, i64 %104, i64 %106)
  %107 = load ptr, ptr %13, align 8
  %108 = getelementptr inbounds %struct.JSWorkerMessageHandler, ptr %107, i32 0, i32 2
  %109 = load ptr, ptr %9, align 8
  %110 = getelementptr inbounds { i64, i64 }, ptr %8, i32 0, i32 0
  %111 = load i64, ptr %110, align 8
  %112 = getelementptr inbounds { i64, i64 }, ptr %8, i32 0, i32 1
  %113 = load i64, ptr %112, align 8
  %114 = call { i64, i64 } @JS_DupValue(ptr noundef %109, i64 %111, i64 %113)
  %115 = getelementptr inbounds { i64, i64 }, ptr %15, i32 0, i32 0
  %116 = extractvalue { i64, i64 } %114, 0
  store i64 %116, ptr %115, align 8
  %117 = getelementptr inbounds { i64, i64 }, ptr %15, i32 0, i32 1
  %118 = extractvalue { i64, i64 } %114, 1
  store i64 %118, ptr %117, align 8
  call void @llvm.memcpy.p0.p0.i64(ptr align 8 %108, ptr align 8 %15, i64 16, i1 false)
  br label %119

119:                                              ; preds = %99, %54
  %120 = getelementptr inbounds %struct.JSValue, ptr %6, i32 0, i32 0
  store i32 0, ptr %120, align 8
  %121 = getelementptr inbounds %struct.JSValue, ptr %6, i32 0, i32 1
  store i64 3, ptr %121, align 8
  br label %122

122:                                              ; preds = %119, %78, %63, %33
  %123 = load { i64, i64 }, ptr %6, align 8
  ret { i64, i64 } %123
}