; Function Attrs: nounwind uwtable
define internal { i64, i64 } @js_worker_set_onmessage(ptr noundef %0, i64 %1, i64 %2, i64 %3, i64 %4) #0 {
  %6 = tail call ptr @JS_GetRuntime(ptr noundef %0) #29
  %7 = tail call ptr @JS_GetRuntimeOpaque(ptr noundef %6) #29
  %8 = load i32, ptr @js_worker_class_id, align 4
  %9 = tail call ptr @JS_GetOpaque2(ptr noundef %0, i64 %1, i64 %2, i32 noundef %8) #29
  %.not = icmp eq ptr %9, null
  br i1 %.not, label %72, label %10

10:                                               ; preds = %5
  %11 = getelementptr inbounds i8, ptr %9, i64 16
  %12 = load ptr, ptr %11, align 8
  %13 = and i64 %4, 4294967295
  %.not47 = icmp eq i64 %13, 2
  br i1 %.not47, label %14, label %34

14:                                               ; preds = %10
  %.not46 = icmp eq ptr %12, null
  br i1 %.not46, label %72, label %15

15:                                               ; preds = %14
  %16 = getelementptr inbounds i8, ptr %12, i64 16
  %17 = load ptr, ptr %16, align 8
  tail call fastcc void @js_free_message_pipe(ptr noundef %17)
  %18 = getelementptr inbounds i8, ptr %12, i64 24
  %19 = load i64, ptr %18, align 8
  %20 = getelementptr inbounds i8, ptr %12, i64 32
  %21 = load i64, ptr %20, align 8
  %22 = trunc i64 %21 to i32
  %23 = icmp ugt i32 %22, -12
  br i1 %23, label %24, label %js_free_port.exit

24:                                               ; preds = %15
  %25 = inttoptr i64 %19 to ptr
  %26 = load i32, ptr %25, align 4
  %27 = add i32 %26, -1
  store i32 %27, ptr %25, align 4
  %28 = icmp slt i32 %27, 1
  br i1 %28, label %29, label %js_free_port.exit

29:                                               ; preds = %24
  tail call void @__JS_FreeValueRT(ptr noundef %6, i64 %19, i64 %21) #29
  br label %js_free_port.exit

js_free_port.exit:                                ; preds = %15, %24, %29
  %30 = load ptr, ptr %12, align 8
  %31 = getelementptr inbounds i8, ptr %12, i64 8
  %32 = load ptr, ptr %31, align 8
  %33 = getelementptr inbounds i8, ptr %30, i64 8
  store ptr %32, ptr %33, align 8
  store ptr %30, ptr %32, align 8
  tail call void @llvm.memset.p0.i64(ptr noundef nonnull align 8 dereferenceable(16) %12, i8 0, i64 16, i1 false)
  tail call void @js_free_rt(ptr noundef %6, ptr noundef nonnull %12) #29
  store ptr null, ptr %11, align 8
  br label %72

34:                                               ; preds = %10
  %35 = tail call i32 @JS_IsFunction(ptr noundef %0, i64 %3, i64 %4) #29
  %.not43 = icmp eq i32 %35, 0
  br i1 %.not43, label %36, label %41

36:                                               ; preds = %34
  %37 = tail call { i64, i64 } (ptr, ptr, ...) @JS_ThrowTypeError(ptr noundef %0, ptr noundef nonnull @.str.106) #29
  %38 = extractvalue { i64, i64 } %37, 0
  %.sroa.5.0.extract.shift = and i64 %38, -4294967296
  %39 = extractvalue { i64, i64 } %37, 1
  %40 = and i64 %38, 4294967295
  br label %72

41:                                               ; preds = %34
  %.not44 = icmp eq ptr %12, null
  br i1 %.not44, label %42, label %53

42:                                               ; preds = %41
  %43 = tail call ptr @js_mallocz(ptr noundef %0, i64 noundef 40) #29
  %.not45 = icmp eq ptr %43, null
  br i1 %.not45, label %72, label %44

44:                                               ; preds = %42
  %45 = load ptr, ptr %9, align 8
  %46 = atomicrmw add ptr %45, i32 1 seq_cst, align 4
  %47 = getelementptr inbounds i8, ptr %43, i64 16
  store ptr %45, ptr %47, align 8
  %48 = getelementptr inbounds i8, ptr %43, i64 24
  store i32 0, ptr %48, align 8
  %.sroa.23.0..sroa_idx = getelementptr inbounds i8, ptr %43, i64 32
  store i64 2, ptr %.sroa.23.0..sroa_idx, align 8
  %49 = getelementptr inbounds i8, ptr %7, i64 48
  %50 = load ptr, ptr %49, align 8
  %51 = getelementptr inbounds i8, ptr %50, i64 8
  store ptr %43, ptr %51, align 8
  store ptr %50, ptr %43, align 8
  %52 = getelementptr inbounds i8, ptr %43, i64 8
  store ptr %49, ptr %52, align 8
  store ptr %43, ptr %49, align 8
  store ptr %43, ptr %11, align 8
  br label %53

53:                                               ; preds = %44, %41
  %.0 = phi ptr [ %12, %41 ], [ %43, %44 ]
  %54 = getelementptr inbounds i8, ptr %.0, i64 24
  %55 = load i64, ptr %54, align 8
  %56 = getelementptr inbounds i8, ptr %.0, i64 32
  %57 = load i64, ptr %56, align 8
  %58 = trunc i64 %57 to i32
  %59 = icmp ugt i32 %58, -12
  br i1 %59, label %60, label %JS_FreeValue.exit

60:                                               ; preds = %53
  %61 = inttoptr i64 %55 to ptr
  %62 = load i32, ptr %61, align 4
  %63 = add i32 %62, -1
  store i32 %63, ptr %61, align 4
  %64 = icmp slt i32 %63, 1
  br i1 %64, label %65, label %JS_FreeValue.exit

65:                                               ; preds = %60
  tail call void @__JS_FreeValue(ptr noundef %0, i64 %55, i64 %57) #29
  br label %JS_FreeValue.exit

JS_FreeValue.exit:                                ; preds = %53, %60, %65
  %66 = trunc i64 %4 to i32
  %67 = icmp ugt i32 %66, -12
  br i1 %67, label %68, label %JS_DupValue.exit

68:                                               ; preds = %JS_FreeValue.exit
  %69 = inttoptr i64 %3 to ptr
  %70 = load i32, ptr %69, align 4
  %71 = add i32 %70, 1
  store i32 %71, ptr %69, align 4
  br label %JS_DupValue.exit

JS_DupValue.exit:                                 ; preds = %JS_FreeValue.exit, %68
  store i64 %3, ptr %54, align 8
  store i64 %4, ptr %56, align 8
  br label %72

72:                                               ; preds = %JS_DupValue.exit, %js_free_port.exit, %14, %42, %5, %36
  %.sroa.035.0 = phi i64 [ %40, %36 ], [ 0, %5 ], [ 0, %42 ], [ 0, %14 ], [ 0, %js_free_port.exit ], [ 0, %JS_DupValue.exit ]
  %.sroa.5.sroa.0.0 = phi i64 [ %.sroa.5.0.extract.shift, %36 ], [ 0, %5 ], [ 0, %42 ], [ 0, %14 ], [ 0, %js_free_port.exit ], [ 0, %JS_DupValue.exit ]
  %.sroa.5.sroa.2.0 = phi i64 [ %39, %36 ], [ 6, %5 ], [ 6, %42 ], [ 3, %14 ], [ 3, %js_free_port.exit ], [ 3, %JS_DupValue.exit ]
  %.sroa.035.0.insert.insert = or disjoint i64 %.sroa.5.sroa.0.0, %.sroa.035.0
  %.fca.0.insert = insertvalue { i64, i64 } poison, i64 %.sroa.035.0.insert.insert, 0
  %.fca.1.insert = insertvalue { i64, i64 } %.fca.0.insert, i64 %.sroa.5.sroa.2.0, 1
  ret { i64, i64 } %.fca.1.insert
}